target datalayout = "e-m:e-p270:32:32-p271:32:32-p272:64:64-i64:64-i128:128-f80:128-n8:16:32:64-S128"
target triple = "x86_64-pc-linux-gnu"

; Function Attrs: nounwind uwtable
define internal i32 @pix_abs16_x2_c(ptr noundef %0, ptr noundef %1, ptr noundef %2, i64 noundef %3, i32 noundef %4) #2 {
  %6 = alloca ptr, align 8
  %7 = alloca ptr, align 8
  %8 = alloca ptr, align 8
  %9 = alloca i64, align 8
  %10 = alloca i32, align 4
  %11 = alloca i32, align 4
  %12 = alloca i32, align 4
  store ptr %0, ptr %6, align 8, !tbaa !22
  store ptr %1, ptr %7, align 8, !tbaa !24
  store ptr %2, ptr %8, align 8, !tbaa !24
  store i64 %3, ptr %9, align 8, !tbaa !26
  store i32 %4, ptr %10, align 4, !tbaa !11
  call void @llvm.lifetime.start.p0(i64 4, ptr %11) #9
  store i32 0, ptr %11, align 4, !tbaa !11
  call void @llvm.lifetime.start.p0(i64 4, ptr %12) #9
  store i32 0, ptr %12, align 4, !tbaa !11
  br label %13

13:                                               ; preds = %328, %5
  %14 = load i32, ptr %12, align 4, !tbaa !11
  %15 = load i32, ptr %10, align 4, !tbaa !11
  %16 = icmp slt i32 %14, %15
  br i1 %16, label %17, label %331

17:                                               ; preds = %13
  %18 = load ptr, ptr %7, align 8, !tbaa !24
  %19 = getelementptr inbounds i8, ptr %18, i64 0
  %20 = load i8, ptr %19, align 1, !tbaa !36
  %21 = zext i8 %20 to i32
  %22 = load ptr, ptr %8, align 8, !tbaa !24
  %23 = getelementptr inbounds i8, ptr %22, i64 0
  %24 = load i8, ptr %23, align 1, !tbaa !36
  %25 = zext i8 %24 to i32
  %26 = load ptr, ptr %8, align 8, !tbaa !24
  %27 = getelementptr inbounds i8, ptr %26, i64 1
  %28 = load i8, ptr %27, align 1, !tbaa !36
  %29 = zext i8 %28 to i32
  %30 = add nsw i32 %25, %29
  %31 = add nsw i32 %30, 1
  %32 = ashr i32 %31, 1
  %33 = sub nsw i32 %21, %32
  %34 = call i32 @llvm.abs.i32(i32 %33, i1 true)
  %35 = load i32, ptr %11, align 4, !tbaa !11
  %36 = add nsw i32 %35, %34
  store i32 %36, ptr %11, align 4, !tbaa !11
  %37 = load ptr, ptr %7, align 8, !tbaa !24
  %38 = getelementptr inbounds i8, ptr %37, i64 1
  %39 = load i8, ptr %38, align 1, !tbaa !36
  %40 = zext i8 %39 to i32
  %41 = load ptr, ptr %8, align 8, !tbaa !24
  %42 = getelementptr inbounds i8, ptr %41, i64 1
  %43 = load i8, ptr %42, align 1, !tbaa !36
  %44 = zext i8 %43 to i32
  %45 = load ptr, ptr %8, align 8, !tbaa !24
  %46 = getelementptr inbounds i8, ptr %45, i64 2
  %47 = load i8, ptr %46, align 1, !tbaa !36
  %48 = zext i8 %47 to i32
  %49 = add nsw i32 %44, %48
  %50 = add nsw i32 %49, 1
  %51 = ashr i32 %50, 1
  %52 = sub nsw i32 %40, %51
  %53 = call i32 @llvm.abs.i32(i32 %52, i1 true)
  %54 = load i32, ptr %11, align 4, !tbaa !11
  %55 = add nsw i32 %54, %53
  store i32 %55, ptr %11, align 4, !tbaa !11
  %56 = load ptr, ptr %7, align 8, !tbaa !24
  %57 = getelementptr inbounds i8, ptr %56, i64 2
  %58 = load i8, ptr %57, align 1, !tbaa !36
  %59 = zext i8 %58 to i32
  %60 = load ptr, ptr %8, align 8, !tbaa !24
  %61 = getelementptr inbounds i8, ptr %60, i64 2
  %62 = load i8, ptr %61, align 1, !tbaa !36
  %63 = zext i8 %62 to i32
  %64 = load ptr, ptr %8, align 8, !tbaa !24
  %65 = getelementptr inbounds i8, ptr %64, i64 3
  %66 = load i8, ptr %65, align 1, !tbaa !36
  %67 = zext i8 %66 to i32
  %68 = add nsw i32 %63, %67
  %69 = add nsw i32 %68, 1
  %70 = ashr i32 %69, 1
  %71 = sub nsw i32 %59, %70
  %72 = call i32 @llvm.abs.i32(i32 %71, i1 true)
  %73 = load i32, ptr %11, align 4, !tbaa !11
  %74 = add nsw i32 %73, %72
  store i32 %74, ptr %11, align 4, !tbaa !11
  %75 = load ptr, ptr %7, align 8, !tbaa !24
  %76 = getelementptr inbounds i8, ptr %75, i64 3
  %77 = load i8, ptr %76, align 1, !tbaa !36
  %78 = zext i8 %77 to i32
  %79 = load ptr, ptr %8, align 8, !tbaa !24
  %80 = getelementptr inbounds i8, ptr %79, i64 3
  %81 = load i8, ptr %80, align 1, !tbaa !36
  %82 = zext i8 %81 to i32
  %83 = load ptr, ptr %8, align 8, !tbaa !24
  %84 = getelementptr inbounds i8, ptr %83, i64 4
  %85 = load i8, ptr %84, align 1, !tbaa !36
  %86 = zext i8 %85 to i32
  %87 = add nsw i32 %82, %86
  %88 = add nsw i32 %87, 1
  %89 = ashr i32 %88, 1
  %90 = sub nsw i32 %78, %89
  %91 = call i32 @llvm.abs.i32(i32 %90, i1 true)
  %92 = load i32, ptr %11, align 4, !tbaa !11
  %93 = add nsw i32 %92, %91
  store i32 %93, ptr %11, align 4, !tbaa !11
  %94 = load ptr, ptr %7, align 8, !tbaa !24
  %95 = getelementptr inbounds i8, ptr %94, i64 4
  %96 = load i8, ptr %95, align 1, !tbaa !36
  %97 = zext i8 %96 to i32
  %98 = load ptr, ptr %8, align 8, !tbaa !24
  %99 = getelementptr inbounds i8, ptr %98, i64 4
  %100 = load i8, ptr %99, align 1, !tbaa !36
  %101 = zext i8 %100 to i32
  %102 = load ptr, ptr %8, align 8, !tbaa !24
  %103 = getelementptr inbounds i8, ptr %102, i64 5
  %104 = load i8, ptr %103, align 1, !tbaa !36
  %105 = zext i8 %104 to i32
  %106 = add nsw i32 %101, %105
  %107 = add nsw i32 %106, 1
  %108 = ashr i32 %107, 1
  %109 = sub nsw i32 %97, %108
  %110 = call i32 @llvm.abs.i32(i32 %109, i1 true)
  %111 = load i32, ptr %11, align 4, !tbaa !11
  %112 = add nsw i32 %111, %110
  store i32 %112, ptr %11, align 4, !tbaa !11
  %113 = load ptr, ptr %7, align 8, !tbaa !24
  %114 = getelementptr inbounds i8, ptr %113, i64 5
  %115 = load i8, ptr %114, align 1, !tbaa !36
  %116 = zext i8 %115 to i32
  %117 = load ptr, ptr %8, align 8, !tbaa !24
  %118 = getelementptr inbounds i8, ptr %117, i64 5
  %119 = load i8, ptr %118, align 1, !tbaa !36
  %120 = zext i8 %119 to i32
  %121 = load ptr, ptr %8, align 8, !tbaa !24
  %122 = getelementptr inbounds i8, ptr %121, i64 6
  %123 = load i8, ptr %122, align 1, !tbaa !36
  %124 = zext i8 %123 to i32
  %125 = add nsw i32 %120, %124
  %126 = add nsw i32 %125, 1
  %127 = ashr i32 %126, 1
  %128 = sub nsw i32 %116, %127
  %129 = call i32 @llvm.abs.i32(i32 %128, i1 true)
  %130 = load i32, ptr %11, align 4, !tbaa !11
  %131 = add nsw i32 %130, %129
  store i32 %131, ptr %11, align 4, !tbaa !11
  %132 = load ptr, ptr %7, align 8, !tbaa !24
  %133 = getelementptr inbounds i8, ptr %132, i64 6
  %134 = load i8, ptr %133, align 1, !tbaa !36
  %135 = zext i8 %134 to i32
  %136 = load ptr, ptr %8, align 8, !tbaa !24
  %137 = getelementptr inbounds i8, ptr %136, i64 6
  %138 = load i8, ptr %137, align 1, !tbaa !36
  %139 = zext i8 %138 to i32
  %140 = load ptr, ptr %8, align 8, !tbaa !24
  %141 = getelementptr inbounds i8, ptr %140, i64 7
  %142 = load i8, ptr %141, align 1, !tbaa !36
  %143 = zext i8 %142 to i32
  %144 = add nsw i32 %139, %143
  %145 = add nsw i32 %144, 1
  %146 = ashr i32 %145, 1
  %147 = sub nsw i32 %135, %146
  %148 = call i32 @llvm.abs.i32(i32 %147, i1 true)
  %149 = load i32, ptr %11, align 4, !tbaa !11
  %150 = add nsw i32 %149, %148
  store i32 %150, ptr %11, align 4, !tbaa !11
  %151 = load ptr, ptr %7, align 8, !tbaa !24
  %152 = getelementptr inbounds i8, ptr %151, i64 7
  %153 = load i8, ptr %152, align 1, !tbaa !36
  %154 = zext i8 %153 to i32
  %155 = load ptr, ptr %8, align 8, !tbaa !24
  %156 = getelementptr inbounds i8, ptr %155, i64 7
  %157 = load i8, ptr %156, align 1, !tbaa !36
  %158 = zext i8 %157 to i32
  %159 = load ptr, ptr %8, align 8, !tbaa !24
  %160 = getelementptr inbounds i8, ptr %159, i64 8
  %161 = load i8, ptr %160, align 1, !tbaa !36
  %162 = zext i8 %161 to i32
  %163 = add nsw i32 %158, %162
  %164 = add nsw i32 %163, 1
  %165 = ashr i32 %164, 1
  %166 = sub nsw i32 %154, %165
  %167 = call i32 @llvm.abs.i32(i32 %166, i1 true)
  %168 = load i32, ptr %11, align 4, !tbaa !11
  %169 = add nsw i32 %168, %167
  store i32 %169, ptr %11, align 4, !tbaa !11
  %170 = load ptr, ptr %7, align 8, !tbaa !24
  %171 = getelementptr inbounds i8, ptr %170, i64 8
  %172 = load i8, ptr %171, align 1, !tbaa !36
  %173 = zext i8 %172 to i32
  %174 = load ptr, ptr %8, align 8, !tbaa !24
  %175 = getelementptr inbounds i8, ptr %174, i64 8
  %176 = load i8, ptr %175, align 1, !tbaa !36
  %177 = zext i8 %176 to i32
  %178 = load ptr, ptr %8, align 8, !tbaa !24
  %179 = getelementptr inbounds i8, ptr %178, i64 9
  %180 = load i8, ptr %179, align 1, !tbaa !36
  %181 = zext i8 %180 to i32
  %182 = add nsw i32 %177, %181
  %183 = add nsw i32 %182, 1
  %184 = ashr i32 %183, 1
  %185 = sub nsw i32 %173, %184
  %186 = call i32 @llvm.abs.i32(i32 %185, i1 true)
  %187 = load i32, ptr %11, align 4, !tbaa !11
  %188 = add nsw i32 %187, %186
  store i32 %188, ptr %11, align 4, !tbaa !11
  %189 = load ptr, ptr %7, align 8, !tbaa !24
  %190 = getelementptr inbounds i8, ptr %189, i64 9
  %191 = load i8, ptr %190, align 1, !tbaa !36
  %192 = zext i8 %191 to i32
  %193 = load ptr, ptr %8, align 8, !tbaa !24
  %194 = getelementptr inbounds i8, ptr %193, i64 9
  %195 = load i8, ptr %194, align 1, !tbaa !36
  %196 = zext i8 %195 to i32
  %197 = load ptr, ptr %8, align 8, !tbaa !24
  %198 = getelementptr inbounds i8, ptr %197, i64 10
  %199 = load i8, ptr %198, align 1, !tbaa !36
  %200 = zext i8 %199 to i32
  %201 = add nsw i32 %196, %200
  %202 = add nsw i32 %201, 1
  %203 = ashr i32 %202, 1
  %204 = sub nsw i32 %192, %203
  %205 = call i32 @llvm.abs.i32(i32 %204, i1 true)
  %206 = load i32, ptr %11, align 4, !tbaa !11
  %207 = add nsw i32 %206, %205
  store i32 %207, ptr %11, align 4, !tbaa !11
  %208 = load ptr, ptr %7, align 8, !tbaa !24
  %209 = getelementptr inbounds i8, ptr %208, i64 10
  %210 = load i8, ptr %209, align 1, !tbaa !36
  %211 = zext i8 %210 to i32
  %212 = load ptr, ptr %8, align 8, !tbaa !24
  %213 = getelementptr inbounds i8, ptr %212, i64 10
  %214 = load i8, ptr %213, align 1, !tbaa !36
  %215 = zext i8 %214 to i32
  %216 = load ptr, ptr %8, align 8, !tbaa !24
  %217 = getelementptr inbounds i8, ptr %216, i64 11
  %218 = load i8, ptr %217, align 1, !tbaa !36
  %219 = zext i8 %218 to i32
  %220 = add nsw i32 %215, %219
  %221 = add nsw i32 %220, 1
  %222 = ashr i32 %221, 1
  %223 = sub nsw i32 %211, %222
  %224 = call i32 @llvm.abs.i32(i32 %223, i1 true)
  %225 = load i32, ptr %11, align 4, !tbaa !11
  %226 = add nsw i32 %225, %224
  store i32 %226, ptr %11, align 4, !tbaa !11
  %227 = load ptr, ptr %7, align 8, !tbaa !24
  %228 = getelementptr inbounds i8, ptr %227, i64 11
  %229 = load i8, ptr %228, align 1, !tbaa !36
  %230 = zext i8 %229 to i32
  %231 = load ptr, ptr %8, align 8, !tbaa !24
  %232 = getelementptr inbounds i8, ptr %231, i64 11
  %233 = load i8, ptr %232, align 1, !tbaa !36
  %234 = zext i8 %233 to i32
  %235 = load ptr, ptr %8, align 8, !tbaa !24
  %236 = getelementptr inbounds i8, ptr %235, i64 12
  %237 = load i8, ptr %236, align 1, !tbaa !36
  %238 = zext i8 %237 to i32
  %239 = add nsw i32 %234, %238
  %240 = add nsw i32 %239, 1
  %241 = ashr i32 %240, 1
  %242 = sub nsw i32 %230, %241
  %243 = call i32 @llvm.abs.i32(i32 %242, i1 true)
  %244 = load i32, ptr %11, align 4, !tbaa !11
  %245 = add nsw i32 %244, %243
  store i32 %245, ptr %11, align 4, !tbaa !11
  %246 = load ptr, ptr %7, align 8, !tbaa !24
  %247 = getelementptr inbounds i8, ptr %246, i64 12
  %248 = load i8, ptr %247, align 1, !tbaa !36
  %249 = zext i8 %248 to i32
  %250 = load ptr, ptr %8, align 8, !tbaa !24
  %251 = getelementptr inbounds i8, ptr %250, i64 12
  %252 = load i8, ptr %251, align 1, !tbaa !36
  %253 = zext i8 %252 to i32
  %254 = load ptr, ptr %8, align 8, !tbaa !24
  %255 = getelementptr inbounds i8, ptr %254, i64 13
  %256 = load i8, ptr %255, align 1, !tbaa !36
  %257 = zext i8 %256 to i32
  %258 = add nsw i32 %253, %257
  %259 = add nsw i32 %258, 1
  %260 = ashr i32 %259, 1
  %261 = sub nsw i32 %249, %260
  %262 = call i32 @llvm.abs.i32(i32 %261, i1 true)
  %263 = load i32, ptr %11, align 4, !tbaa !11
  %264 = add nsw i32 %263, %262
  store i32 %264, ptr %11, align 4, !tbaa !11
  %265 = load ptr, ptr %7, align 8, !tbaa !24
  %266 = getelementptr inbounds i8, ptr %265, i64 13
  %267 = load i8, ptr %266, align 1, !tbaa !36
  %268 = zext i8 %267 to i32
  %269 = load ptr, ptr %8, align 8, !tbaa !24
  %270 = getelementptr inbounds i8, ptr %269, i64 13
  %271 = load i8, ptr %270, align 1, !tbaa !36
  %272 = zext i8 %271 to i32
  %273 = load ptr, ptr %8, align 8, !tbaa !24
  %274 = getelementptr inbounds i8, ptr %273, i64 14
  %275 = load i8, ptr %274, align 1, !tbaa !36
  %276 = zext i8 %275 to i32
  %277 = add nsw i32 %272, %276
  %278 = add nsw i32 %277, 1
  %279 = ashr i32 %278, 1
  %280 = sub nsw i32 %268, %279
  %281 = call i32 @llvm.abs.i32(i32 %280, i1 true)
  %282 = load i32, ptr %11, align 4, !tbaa !11
  %283 = add nsw i32 %282, %281
  store i32 %283, ptr %11, align 4, !tbaa !11
  %284 = load ptr, ptr %7, align 8, !tbaa !24
  %285 = getelementptr inbounds i8, ptr %284, i64 14
  %286 = load i8, ptr %285, align 1, !tbaa !36
  %287 = zext i8 %286 to i32
  %288 = load ptr, ptr %8, align 8, !tbaa !24
  %289 = getelementptr inbounds i8, ptr %288, i64 14
  %290 = load i8, ptr %289, align 1, !tbaa !36
  %291 = zext i8 %290 to i32
  %292 = load ptr, ptr %8, align 8, !tbaa !24
  %293 = getelementptr inbounds i8, ptr %292, i64 15
  %294 = load i8, ptr %293, align 1, !tbaa !36
  %295 = zext i8 %294 to i32
  %296 = add nsw i32 %291, %295
  %297 = add nsw i32 %296, 1
  %298 = ashr i32 %297, 1
  %299 = sub nsw i32 %287, %298
  %300 = call i32 @llvm.abs.i32(i32 %299, i1 true)
  %301 = load i32, ptr %11, align 4, !tbaa !11
  %302 = add nsw i32 %301, %300
  store i32 %302, ptr %11, align 4, !tbaa !11
  %303 = load ptr, ptr %7, align 8, !tbaa !24
  %304 = getelementptr inbounds i8, ptr %303, i64 15
  %305 = load i8, ptr %304, align 1, !tbaa !36
  %306 = zext i8 %305 to i32
  %307 = load ptr, ptr %8, align 8, !tbaa !24
  %308 = getelementptr inbounds i8, ptr %307, i64 15
  %309 = load i8, ptr %308, align 1, !tbaa !36
  %310 = zext i8 %309 to i32
  %311 = load ptr, ptr %8, align 8, !tbaa !24
  %312 = getelementptr inbounds i8, ptr %311, i64 16
  %313 = load i8, ptr %312, align 1, !tbaa !36
  %314 = zext i8 %313 to i32
  %315 = add nsw i32 %310, %314
  %316 = add nsw i32 %315, 1
  %317 = ashr i32 %316, 1
  %318 = sub nsw i32 %306, %317
  %319 = call i32 @llvm.abs.i32(i32 %318, i1 true)
  %320 = load i32, ptr %11, align 4, !tbaa !11
  %321 = add nsw i32 %320, %319
  store i32 %321, ptr %11, align 4, !tbaa !11
  %322 = load i64, ptr %9, align 8, !tbaa !26
  %323 = load ptr, ptr %7, align 8, !tbaa !24
  %324 = getelementptr inbounds i8, ptr %323, i64 %322
  store ptr %324, ptr %7, align 8, !tbaa !24
  %325 = load i64, ptr %9, align 8, !tbaa !26
  %326 = load ptr, ptr %8, align 8, !tbaa !24
  %327 = getelementptr inbounds i8, ptr %326, i64 %325
  store ptr %327, ptr %8, align 8, !tbaa !24
  br label %328

328:                                              ; preds = %17
  %329 = load i32, ptr %12, align 4, !tbaa !11
  %330 = add nsw i32 %329, 1
  store i32 %330, ptr %12, align 4, !tbaa !11
  br label %13, !llvm.loop !38

331:                                              ; preds = %13
  %332 = load i32, ptr %11, align 4, !tbaa !11
  call void @llvm.lifetime.end.p0(i64 4, ptr %12) #9
  call void @llvm.lifetime.end.p0(i64 4, ptr %11) #9
  ret i32 %332
}