; Function Attrs: nofree norecurse nosync nounwind memory(argmem: read) uwtable
define internal i32 @pix_abs16_x2_c(ptr readnone captures(none) %0, ptr noundef readonly captures(none) %1, ptr noundef readonly captures(none) %2, i64 noundef %3, i32 noundef %4) #5 {
  %6 = icmp sgt i32 %4, 0
  br i1 %6, label %.lr.ph, label %._crit_edge

.lr.ph:                                           ; preds = %5, %.lr.ph
  %.077 = phi i32 [ %201, %.lr.ph ], [ 0, %5 ]
  %.07176 = phi i32 [ %198, %.lr.ph ], [ 0, %5 ]
  %.07275 = phi ptr [ %199, %.lr.ph ], [ %1, %5 ]
  %.07374 = phi ptr [ %200, %.lr.ph ], [ %2, %5 ]
  %7 = load i8, ptr %.07275, align 1, !tbaa !20
  %8 = zext i8 %7 to i32
  %9 = load i8, ptr %.07374, align 1, !tbaa !20
  %10 = zext i8 %9 to i32
  %11 = getelementptr inbounds nuw i8, ptr %.07374, i64 1
  %12 = load i8, ptr %11, align 1, !tbaa !20
  %13 = zext i8 %12 to i32
  %14 = add nuw nsw i32 %13, 1
  %15 = add nuw nsw i32 %14, %10
  %16 = lshr i32 %15, 1
  %17 = sub nsw i32 %8, %16
  %18 = tail call i32 @llvm.abs.i32(i32 %17, i1 true)
  %19 = add nsw i32 %18, %.07176
  %20 = getelementptr inbounds nuw i8, ptr %.07275, i64 1
  %21 = load i8, ptr %20, align 1, !tbaa !20
  %22 = zext i8 %21 to i32
  %23 = getelementptr inbounds nuw i8, ptr %.07374, i64 2
  %24 = load i8, ptr %23, align 1, !tbaa !20
  %25 = zext i8 %24 to i32
  %26 = add nuw nsw i32 %14, %25
  %27 = lshr i32 %26, 1
  %28 = sub nsw i32 %22, %27
  %29 = tail call i32 @llvm.abs.i32(i32 %28, i1 true)
  %30 = add nsw i32 %19, %29
  %31 = getelementptr inbounds nuw i8, ptr %.07275, i64 2
  %32 = load i8, ptr %31, align 1, !tbaa !20
  %33 = zext i8 %32 to i32
  %34 = getelementptr inbounds nuw i8, ptr %.07374, i64 3
  %35 = load i8, ptr %34, align 1, !tbaa !20
  %36 = zext i8 %35 to i32
  %37 = add nuw nsw i32 %25, 1
  %38 = add nuw nsw i32 %37, %36
  %39 = lshr i32 %38, 1
  %40 = sub nsw i32 %33, %39
  %41 = tail call i32 @llvm.abs.i32(i32 %40, i1 true)
  %42 = add nsw i32 %30, %41
  %43 = getelementptr inbounds nuw i8, ptr %.07275, i64 3
  %44 = load i8, ptr %43, align 1, !tbaa !20
  %45 = zext i8 %44 to i32
  %46 = getelementptr inbounds nuw i8, ptr %.07374, i64 4
  %47 = load i8, ptr %46, align 1, !tbaa !20
  %48 = zext i8 %47 to i32
  %49 = add nuw nsw i32 %36, 1
  %50 = add nuw nsw i32 %49, %48
  %51 = lshr i32 %50, 1
  %52 = sub nsw i32 %45, %51
  %53 = tail call i32 @llvm.abs.i32(i32 %52, i1 true)
  %54 = add nsw i32 %42, %53
  %55 = getelementptr inbounds nuw i8, ptr %.07275, i64 4
  %56 = load i8, ptr %55, align 1, !tbaa !20
  %57 = zext i8 %56 to i32
  %58 = getelementptr inbounds nuw i8, ptr %.07374, i64 5
  %59 = load i8, ptr %58, align 1, !tbaa !20
  %60 = zext i8 %59 to i32
  %61 = add nuw nsw i32 %48, 1
  %62 = add nuw nsw i32 %61, %60
  %63 = lshr i32 %62, 1
  %64 = sub nsw i32 %57, %63
  %65 = tail call i32 @llvm.abs.i32(i32 %64, i1 true)
  %66 = add nsw i32 %54, %65
  %67 = getelementptr inbounds nuw i8, ptr %.07275, i64 5
  %68 = load i8, ptr %67, align 1, !tbaa !20
  %69 = zext i8 %68 to i32
  %70 = getelementptr inbounds nuw i8, ptr %.07374, i64 6
  %71 = load i8, ptr %70, align 1, !tbaa !20
  %72 = zext i8 %71 to i32
  %73 = add nuw nsw i32 %60, 1
  %74 = add nuw nsw i32 %73, %72
  %75 = lshr i32 %74, 1
  %76 = sub nsw i32 %69, %75
  %77 = tail call i32 @llvm.abs.i32(i32 %76, i1 true)
  %78 = add nsw i32 %66, %77
  %79 = getelementptr inbounds nuw i8, ptr %.07275, i64 6
  %80 = load i8, ptr %79, align 1, !tbaa !20
  %81 = zext i8 %80 to i32
  %82 = getelementptr inbounds nuw i8, ptr %.07374, i64 7
  %83 = load i8, ptr %82, align 1, !tbaa !20
  %84 = zext i8 %83 to i32
  %85 = add nuw nsw i32 %72, 1
  %86 = add nuw nsw i32 %85, %84
  %87 = lshr i32 %86, 1
  %88 = sub nsw i32 %81, %87
  %89 = tail call i32 @llvm.abs.i32(i32 %88, i1 true)
  %90 = add nsw i32 %78, %89
  %91 = getelementptr inbounds nuw i8, ptr %.07275, i64 7
  %92 = load i8, ptr %91, align 1, !tbaa !20
  %93 = zext i8 %92 to i32
  %94 = getelementptr inbounds nuw i8, ptr %.07374, i64 8
  %95 = load i8, ptr %94, align 1, !tbaa !20
  %96 = zext i8 %95 to i32
  %97 = add nuw nsw i32 %84, 1
  %98 = add nuw nsw i32 %97, %96
  %99 = lshr i32 %98, 1
  %100 = sub nsw i32 %93, %99
  %101 = tail call i32 @llvm.abs.i32(i32 %100, i1 true)
  %102 = add nsw i32 %90, %101
  %103 = getelementptr inbounds nuw i8, ptr %.07275, i64 8
  %104 = load i8, ptr %103, align 1, !tbaa !20
  %105 = zext i8 %104 to i32
  %106 = getelementptr inbounds nuw i8, ptr %.07374, i64 9
  %107 = load i8, ptr %106, align 1, !tbaa !20
  %108 = zext i8 %107 to i32
  %109 = add nuw nsw i32 %96, 1
  %110 = add nuw nsw i32 %109, %108
  %111 = lshr i32 %110, 1
  %112 = sub nsw i32 %105, %111
  %113 = tail call i32 @llvm.abs.i32(i32 %112, i1 true)
  %114 = add nsw i32 %102, %113
  %115 = getelementptr inbounds nuw i8, ptr %.07275, i64 9
  %116 = load i8, ptr %115, align 1, !tbaa !20
  %117 = zext i8 %116 to i32
  %118 = getelementptr inbounds nuw i8, ptr %.07374, i64 10
  %119 = load i8, ptr %118, align 1, !tbaa !20
  %120 = zext i8 %119 to i32
  %121 = add nuw nsw i32 %108, 1
  %122 = add nuw nsw i32 %121, %120
  %123 = lshr i32 %122, 1
  %124 = sub nsw i32 %117, %123
  %125 = tail call i32 @llvm.abs.i32(i32 %124, i1 true)
  %126 = add nsw i32 %114, %125
  %127 = getelementptr inbounds nuw i8, ptr %.07275, i64 10
  %128 = load i8, ptr %127, align 1, !tbaa !20
  %129 = zext i8 %128 to i32
  %130 = getelementptr inbounds nuw i8, ptr %.07374, i64 11
  %131 = load i8, ptr %130, align 1, !tbaa !20
  %132 = zext i8 %131 to i32
  %133 = add nuw nsw i32 %120, 1
  %134 = add nuw nsw i32 %133, %132
  %135 = lshr i32 %134, 1
  %136 = sub nsw i32 %129, %135
  %137 = tail call i32 @llvm.abs.i32(i32 %136, i1 true)
  %138 = add nsw i32 %126, %137
  %139 = getelementptr inbounds nuw i8, ptr %.07275, i64 11
  %140 = load i8, ptr %139, align 1, !tbaa !20
  %141 = zext i8 %140 to i32
  %142 = getelementptr inbounds nuw i8, ptr %.07374, i64 12
  %143 = load i8, ptr %142, align 1, !tbaa !20
  %144 = zext i8 %143 to i32
  %145 = add nuw nsw i32 %132, 1
  %146 = add nuw nsw i32 %145, %144
  %147 = lshr i32 %146, 1
  %148 = sub nsw i32 %141, %147
  %149 = tail call i32 @llvm.abs.i32(i32 %148, i1 true)
  %150 = add nsw i32 %138, %149
  %151 = getelementptr inbounds nuw i8, ptr %.07275, i64 12
  %152 = load i8, ptr %151, align 1, !tbaa !20
  %153 = zext i8 %152 to i32
  %154 = getelementptr inbounds nuw i8, ptr %.07374, i64 13
  %155 = load i8, ptr %154, align 1, !tbaa !20
  %156 = zext i8 %155 to i32
  %157 = add nuw nsw i32 %144, 1
  %158 = add nuw nsw i32 %157, %156
  %159 = lshr i32 %158, 1
  %160 = sub nsw i32 %153, %159
  %161 = tail call i32 @llvm.abs.i32(i32 %160, i1 true)
  %162 = add nsw i32 %150, %161
  %163 = getelementptr inbounds nuw i8, ptr %.07275, i64 13
  %164 = load i8, ptr %163, align 1, !tbaa !20
  %165 = zext i8 %164 to i32
  %166 = getelementptr inbounds nuw i8, ptr %.07374, i64 14
  %167 = load i8, ptr %166, align 1, !tbaa !20
  %168 = zext i8 %167 to i32
  %169 = add nuw nsw i32 %156, 1
  %170 = add nuw nsw i32 %169, %168
  %171 = lshr i32 %170, 1
  %172 = sub nsw i32 %165, %171
  %173 = tail call i32 @llvm.abs.i32(i32 %172, i1 true)
  %174 = add nsw i32 %162, %173
  %175 = getelementptr inbounds nuw i8, ptr %.07275, i64 14
  %176 = load i8, ptr %175, align 1, !tbaa !20
  %177 = zext i8 %176 to i32
  %178 = getelementptr inbounds nuw i8, ptr %.07374, i64 15
  %179 = load i8, ptr %178, align 1, !tbaa !20
  %180 = zext i8 %179 to i32
  %181 = add nuw nsw i32 %168, 1
  %182 = add nuw nsw i32 %181, %180
  %183 = lshr i32 %182, 1
  %184 = sub nsw i32 %177, %183
  %185 = tail call i32 @llvm.abs.i32(i32 %184, i1 true)
  %186 = add nsw i32 %174, %185
  %187 = getelementptr inbounds nuw i8, ptr %.07275, i64 15
  %188 = load i8, ptr %187, align 1, !tbaa !20
  %189 = zext i8 %188 to i32
  %190 = getelementptr inbounds nuw i8, ptr %.07374, i64 16
  %191 = load i8, ptr %190, align 1, !tbaa !20
  %192 = zext i8 %191 to i32
  %193 = add nuw nsw i32 %180, 1
  %194 = add nuw nsw i32 %193, %192
  %195 = lshr i32 %194, 1
  %196 = sub nsw i32 %189, %195
  %197 = tail call i32 @llvm.abs.i32(i32 %196, i1 true)
  %198 = add nsw i32 %186, %197
  %199 = getelementptr inbounds i8, ptr %.07275, i64 %3
  %200 = getelementptr inbounds i8, ptr %.07374, i64 %3
  %201 = add nuw nsw i32 %.077, 1
  %exitcond.not = icmp eq i32 %201, %4
  br i1 %exitcond.not, label %._crit_edge, label %.lr.ph, !llvm.loop !22

._crit_edge:                                      ; preds = %.lr.ph, %5
  %.071.lcssa = phi i32 [ 0, %5 ], [ %198, %.lr.ph ]
  ret i32 %.071.lcssa
}